; Function Attrs: nounwind uwtable
define ptr @l_Lean_Elab_Tactic_RCases_rintro(ptr noundef %0, ptr noundef %1, ptr noundef %2, ptr noundef %3, ptr noundef %4, ptr noundef %5, ptr noundef %6, ptr noundef %7, ptr noundef %8, ptr noundef %9) local_unnamed_addr #1 {
  %11 = load ptr, ptr @l_Lean_Elab_Tactic_RCases_finish___closed__1, align 8, !tbaa !4
  %12 = load ptr, ptr @l_Lean_Elab_Tactic_RCases_obtainNone___lambda__1___closed__1, align 8, !tbaa !4
  tail call void @lean_inc_heartbeat() #5
  %13 = tail call noalias ptr @mi_malloc_small(i64 noundef 72) #5
  %14 = icmp eq ptr %13, null
  br i1 %14, label %15, label %lean_alloc_closure.exit

15:                                               ; preds = %10
  tail call void @lean_internal_panic_out_of_memory() #6
  unreachable

lean_alloc_closure.exit:                          ; preds = %10
  %16 = getelementptr inbounds nuw i8, ptr %13, i64 4
  store i32 1, ptr %13, align 4, !tbaa !8
  store i32 -184549304, ptr %16, align 4
  %17 = getelementptr inbounds nuw i8, ptr %13, i64 8
  store ptr @l_Lean_Elab_Tactic_RCases_rintro___lambda__1, ptr %17, align 8, !tbaa !4
  %18 = getelementptr inbounds nuw i8, ptr %13, i64 16
  store i16 13, ptr %18, align 8, !tbaa !18
  %19 = getelementptr inbounds nuw i8, ptr %13, i64 18
  store i16 6, ptr %19, align 2, !tbaa !18
  %20 = getelementptr inbounds nuw i8, ptr %13, i64 24
  store ptr %2, ptr %20, align 8, !tbaa !4
  %21 = getelementptr inbounds nuw i8, ptr %13, i64 32
  store ptr inttoptr (i64 1 to ptr), ptr %21, align 8, !tbaa !4
  %22 = getelementptr inbounds nuw i8, ptr %13, i64 40
  store ptr %11, ptr %22, align 8, !tbaa !4
  %23 = getelementptr inbounds nuw i8, ptr %13, i64 48
  store ptr %0, ptr %23, align 8, !tbaa !4
  %24 = getelementptr inbounds nuw i8, ptr %13, i64 56
  store ptr %1, ptr %24, align 8, !tbaa !4
  %25 = getelementptr inbounds nuw i8, ptr %13, i64 64
  store ptr %12, ptr %25, align 8, !tbaa !4
  %26 = tail call ptr @l___private_Lean_Elab_SyntheticMVars_0__Lean_Elab_Term_withSynthesizeImp___rarg(ptr noundef nonnull %13, i8 noundef zeroext 1, ptr noundef %3, ptr noundef %4, ptr noundef %5, ptr noundef %6, ptr noundef %7, ptr noundef %8, ptr noundef %9) #5
  ret ptr %26
}